target datalayout = "e-m:e-p270:32:32-p271:32:32-p272:64:64-i64:64-i128:128-f80:128-n8:16:32:64-S128"
target triple = "x86_64-pc-linux-gnu"

%"class.cv::Size_" = type { i32, i32 }
%"class.cv::detail::tracking::online_boosting::StrongClassifierDirectSelection" = type { ptr, i32, i32, i32, i32, ptr, %"class.std::vector", %"class.cv::Size_", i8, %"class.std::vector.0", %"class.std::vector", %"class.std::vector", ptr, %"class.cv::Rect_", i32, i32 }
%"class.std::vector.0" = type { %"struct.std::_Bvector_base" }
%"struct.std::_Bvector_base" = type { %"struct.std::_Bvector_base<std::allocator<bool>>::_Bvector_impl" }
%"struct.std::_Bvector_base<std::allocator<bool>>::_Bvector_impl" = type { %"struct.std::_Bvector_base<std::allocator<bool>>::_Bvector_impl_data" }
%"struct.std::_Bvector_base<std::allocator<bool>>::_Bvector_impl_data" = type { %"struct.std::_Bit_iterator", %"struct.std::_Bit_iterator", ptr }
%"struct.std::_Bit_iterator" = type { %"struct.std::_Bit_iterator_base.base", [4 x i8] }
%"struct.std::_Bit_iterator_base.base" = type <{ ptr, i32 }>
%"class.std::vector" = type { %"struct.std::_Vector_base" }
%"struct.std::_Vector_base" = type { %"struct.std::_Vector_base<float, std::allocator<float>>::_Vector_impl" }
%"struct.std::_Vector_base<float, std::allocator<float>>::_Vector_impl" = type { %"struct.std::_Vector_base<float, std::allocator<float>>::_Vector_impl_data" }
%"struct.std::_Vector_base<float, std::allocator<float>>::_Vector_impl_data" = type { ptr, ptr, ptr }
%"class.cv::Rect_" = type { i32, i32, i32, i32 }
%"class.cv::detail::tracking::online_boosting::Detector" = type { ptr, ptr, %"class.std::vector", i32, i32, %"class.std::vector.4", i32, i32, float, %"class.cv::Mat_", %"class.cv::Mat_", %"class.cv::Mat_.9" }
%"class.std::vector.4" = type { %"struct.std::_Vector_base.5" }
%"struct.std::_Vector_base.5" = type { %"struct.std::_Vector_base<int, std::allocator<int>>::_Vector_impl" }
%"struct.std::_Vector_base<int, std::allocator<int>>::_Vector_impl" = type { %"struct.std::_Vector_base<int, std::allocator<int>>::_Vector_impl_data" }
%"struct.std::_Vector_base<int, std::allocator<int>>::_Vector_impl_data" = type { ptr, ptr, ptr }
%"class.cv::Mat_" = type { %"class.cv::Mat" }
%"class.cv::Mat" = type { i32, i32, i32, i32, ptr, ptr, ptr, ptr, ptr, ptr, %"struct.cv::MatSize", %"struct.cv::MatStep" }
%"struct.cv::MatSize" = type { ptr }
%"struct.cv::MatStep" = type { ptr, [2 x i64] }
%"class.cv::Mat_.9" = type { %"class.cv::Mat" }

; Function Attrs: mustprogress nounwind uwtable
define linkonce_odr hidden noundef float @_ZN2cv6detail8tracking15online_boosting8Detector28getConfidenceOfBestDetectionEv(ptr noundef nonnull align 8 dereferenceable(376) %0) #5 comdat align 2 {
  %2 = alloca ptr, align 8
  store ptr %0, ptr %2, align 8, !tbaa !78
  %3 = load ptr, ptr %2, align 8
  %4 = getelementptr inbounds nuw %"class.cv::detail::tracking::online_boosting::Detector", ptr %3, i32 0, i32 8
  %5 = load float, ptr %4, align 8, !tbaa !94
  ret float %5
}

; Function Attrs: mustprogress nounwind uwtable
define hidden noundef i32 @_ZN2cv6detail8tracking15online_boosting8Detector26getPatchIdxOfBestDetectionEv(ptr noundef nonnull align 8 dereferenceable(376) %0) #5 align 2 {
  %2 = alloca ptr, align 8
  store ptr %0, ptr %2, align 8, !tbaa !78
  %3 = load ptr, ptr %2, align 8
  %4 = getelementptr inbounds nuw %"class.cv::detail::tracking::online_boosting::Detector", ptr %3, i32 0, i32 7
  %5 = load i32, ptr %4, align 4, !tbaa !93
  ret i32 %5
}

; Function Attrs: mustprogress nounwind uwtable
define hidden noundef i32 @_ZN2cv6detail8tracking15online_boosting8Detector16getNumDetectionsEv(ptr noundef nonnull align 8 dereferenceable(376) %0) #5 align 2 {
  %2 = alloca ptr, align 8
  store ptr %0, ptr %2, align 8, !tbaa !78
  %3 = load ptr, ptr %2, align 8
  %4 = getelementptr inbounds nuw %"class.cv::detail::tracking::online_boosting::Detector", ptr %3, i32 0, i32 4
  %5 = load i32, ptr %4, align 4, !tbaa !79
  ret i32 %5
}

; Function Attrs: mustprogress uwtable
define hidden noundef float @_ZN2cv6detail8tracking15online_boosting31StrongClassifierDirectSelection14classifySmoothERKSt6vectorINS_3MatESaIS5_EERKNS_5Rect_IiEERi(ptr noundef nonnull align 8 dereferenceable(192) %0, ptr noundef nonnull align 8 dereferenceable(24) %1, ptr noundef nonnull align 4 dereferenceable(16) %2, ptr noundef nonnull align 4 dereferenceable(4) %3) #4 align 2 {
  %5 = alloca float, align 4
  %6 = alloca ptr, align 8
  %7 = alloca ptr, align 8
  %8 = alloca ptr, align 8
  %9 = alloca ptr, align 8
  %10 = alloca float, align 4
  %11 = alloca i32, align 4
  store ptr %0, ptr %6, align 8, !tbaa !3
  store ptr %1, ptr %7, align 8, !tbaa !74
  store ptr %2, ptr %8, align 8, !tbaa !10
  store ptr %3, ptr %9, align 8, !tbaa !76
  %12 = load ptr, ptr %6, align 8
  %13 = load ptr, ptr %8, align 8, !tbaa !10
  %14 = getelementptr inbounds nuw %"class.cv::detail::tracking::online_boosting::StrongClassifierDirectSelection", ptr %12, i32 0, i32 13
  call void @llvm.memcpy.p0.p0.i64(ptr align 8 %14, ptr align 4 %13, i64 16, i1 false), !tbaa.struct !44
  %15 = load ptr, ptr %9, align 8, !tbaa !76
  store i32 0, ptr %15, align 4, !tbaa !8
  call void @llvm.lifetime.start.p0(i64 4, ptr %10) #3
  store float 0.000000e+00, ptr %10, align 4, !tbaa !38
  %16 = getelementptr inbounds nuw %"class.cv::detail::tracking::online_boosting::StrongClassifierDirectSelection", ptr %12, i32 0, i32 12
  %17 = load ptr, ptr %16, align 8, !tbaa !45
  %18 = load ptr, ptr %7, align 8, !tbaa !74
  call void @_ZN2cv6detail8tracking15online_boosting8Detector14classifySmoothERKSt6vectorINS_3MatESaIS5_EEf(ptr noundef nonnull align 8 dereferenceable(376) %17, ptr noundef nonnull align 8 dereferenceable(24) %18, float noundef 0.000000e+00)
  %19 = getelementptr inbounds nuw %"class.cv::detail::tracking::online_boosting::StrongClassifierDirectSelection", ptr %12, i32 0, i32 12
  %20 = load ptr, ptr %19, align 8, !tbaa !45
  %21 = call noundef i32 @_ZN2cv6detail8tracking15online_boosting8Detector16getNumDetectionsEv(ptr noundef nonnull align 8 dereferenceable(376) %20)
  %22 = icmp sle i32 %21, 0
  br i1 %22, label %23, label %25

23:                                               ; preds = %4
  store float 0.000000e+00, ptr %10, align 4, !tbaa !38
  %24 = load float, ptr %10, align 4, !tbaa !38
  store float %24, ptr %5, align 4
  store i32 1, ptr %11, align 4
  br label %34

25:                                               ; preds = %4
  %26 = getelementptr inbounds nuw %"class.cv::detail::tracking::online_boosting::StrongClassifierDirectSelection", ptr %12, i32 0, i32 12
  %27 = load ptr, ptr %26, align 8, !tbaa !45
  %28 = call noundef i32 @_ZN2cv6detail8tracking15online_boosting8Detector26getPatchIdxOfBestDetectionEv(ptr noundef nonnull align 8 dereferenceable(376) %27)
  %29 = load ptr, ptr %9, align 8, !tbaa !76
  store i32 %28, ptr %29, align 4, !tbaa !8
  %30 = getelementptr inbounds nuw %"class.cv::detail::tracking::online_boosting::StrongClassifierDirectSelection", ptr %12, i32 0, i32 12
  %31 = load ptr, ptr %30, align 8, !tbaa !45
  %32 = call noundef float @_ZN2cv6detail8tracking15online_boosting8Detector28getConfidenceOfBestDetectionEv(ptr noundef nonnull align 8 dereferenceable(376) %31)
  store float %32, ptr %10, align 4, !tbaa !38
  %33 = load float, ptr %10, align 4, !tbaa !38
  store float %33, ptr %5, align 4
  store i32 1, ptr %11, align 4
  br label %34

34:                                               ; preds = %25, %23
  call void @llvm.lifetime.end.p0(i64 4, ptr %10) #3
  %35 = load float, ptr %5, align 4
  ret float %35
}