; Function Attrs: mustprogress uwtable
define hidden noundef float @_ZN2cv6detail8tracking15online_boosting31StrongClassifierDirectSelection14classifySmoothERKSt6vectorINS_3MatESaIS5_EERKNS_5Rect_IiEERi(ptr noundef nonnull align 8 captures(none) dereferenceable(192) initializes((168, 184)) %0, ptr noundef nonnull readonly align 8 captures(none) dereferenceable(24) %1, ptr noundef nonnull readonly align 4 captures(none) dereferenceable(16) %2, ptr noundef nonnull writeonly align 4 captures(none) dereferenceable(4) initializes((0, 4)) %3) local_unnamed_addr #3 align 2 {
  %5 = getelementptr inbounds nuw i8, ptr %0, i64 168
  tail call void @llvm.memcpy.p0.p0.i64(ptr noundef nonnull align 8 dereferenceable(16) %5, ptr noundef nonnull align 4 dereferenceable(16) %2, i64 16, i1 false), !tbaa.struct !39
  store i32 0, ptr %3, align 4, !tbaa !40
  %6 = getelementptr inbounds nuw i8, ptr %0, i64 160
  %7 = load ptr, ptr %6, align 8, !tbaa !62
  tail call void @_ZN2cv6detail8tracking15online_boosting8Detector14classifySmoothERKSt6vectorINS_3MatESaIS5_EEf(ptr noundef nonnull align 8 dereferenceable(376) %7, ptr noundef nonnull align 8 dereferenceable(24) %1, float noundef 0.000000e+00)
  %8 = load ptr, ptr %6, align 8, !tbaa !62
  %9 = getelementptr inbounds nuw i8, ptr %8, i64 44
  %10 = load i32, ptr %9, align 4, !tbaa !60
  %11 = icmp slt i32 %10, 1
  br i1 %11, label %17, label %12

12:                                               ; preds = %4
  %13 = getelementptr inbounds nuw i8, ptr %8, i64 76
  %14 = load i32, ptr %13, align 4, !tbaa !61
  store i32 %14, ptr %3, align 4, !tbaa !40
  %15 = getelementptr inbounds nuw i8, ptr %8, i64 80
  %16 = load float, ptr %15, align 8, !tbaa !59
  br label %17

17:                                               ; preds = %4, %12
  %.0 = phi float [ %16, %12 ], [ 0.000000e+00, %4 ]
  ret float %.0
}